; Function Attrs: mustprogress uwtable
define void @_ZN10OpenSubdiv6v3_6_03Vtr8internal13TriRefinementC2ERKNS2_5LevelERS4_RKNS0_3Sdc7OptionsE(ptr noundef nonnull align 8 dereferenceable(528) %0, ptr noundef nonnull align 8 dereferenceable(480) %1, ptr noundef nonnull align 8 dereferenceable(480) %2, ptr noundef nonnull align 1 dereferenceable(4) %3) unnamed_addr #1 align 2 {
  tail call void @_ZN10OpenSubdiv6v3_6_03Vtr8internal10RefinementC2ERKNS2_5LevelERS4_RKNS0_3Sdc7OptionsE(ptr noundef nonnull align 8 dereferenceable(504) %0, ptr noundef nonnull align 8 dereferenceable(480) %1, ptr noundef nonnull align 8 dereferenceable(480) %2, ptr noundef nonnull align 1 dereferenceable(4) %3)
  store ptr getelementptr inbounds inrange(-16, 80) (i8, ptr @_ZTVN10OpenSubdiv6v3_6_03Vtr8internal13TriRefinementE, i64 16), ptr %0, align 8
  %5 = getelementptr inbounds nuw i8, ptr %0, i64 504
  tail call void @llvm.memset.p0.i64(ptr noundef nonnull align 8 dereferenceable(24) %5, i8 0, i64 24, i1 false)
  %6 = getelementptr inbounds nuw i8, ptr %0, i64 28
  store i32 1, ptr %6, align 4
  %7 = getelementptr inbounds nuw i8, ptr %0, i64 32
  store i32 3, ptr %7, align 8
  ret void
}